; Function Attrs: nounwind uwtable
define dso_local ptr @llvm_get_twostruct(ptr nocapture noundef readonly %0, ptr noundef %1, ptr noundef %2) local_unnamed_addr #0 {
  %4 = alloca [2 x ptr], align 16
  store ptr %1, ptr %4, align 16
  %5 = getelementptr inbounds i8, ptr %4, i64 8
  store ptr %2, ptr %5, align 8
  %6 = getelementptr inbounds i8, ptr %0, i64 40
  %7 = load ptr, ptr %6, align 8
  %8 = call ptr @LLVMStructTypeInContext(ptr noundef %7, ptr noundef nonnull %4, i32 noundef 2, i32 noundef 0) #6
  ret ptr %8
}